target datalayout = "e-m:e-p270:32:32-p271:32:32-p272:64:64-i64:64-i128:128-f80:128-n8:16:32:64-S128"
target triple = "x86_64-pc-linux-gnu"

%"class.casadi::SharedObject" = type { ptr }
%"class.casadi::MX" = type { %"class.casadi::SharedObject" }

; Function Attrs: mustprogress uwtable
define void @_ZNK6casadi6MXNode10get_subrefERKNS_5SliceES3_(ptr dead_on_unwind noalias writable sret(%"class.casadi::MX") align 8 %0, ptr noundef nonnull align 8 dereferenceable(64) %1, ptr noundef nonnull align 8 dereferenceable(24) %2, ptr noundef nonnull align 8 dereferenceable(24) %3) unnamed_addr #4 align 2 personality ptr @__gxx_personality_v0 {
  %5 = alloca ptr, align 8
  %6 = alloca ptr, align 8
  %7 = alloca ptr, align 8
  %8 = alloca ptr, align 8
  %9 = alloca %"class.casadi::MX", align 8
  %10 = alloca ptr, align 8
  %11 = alloca i32, align 4
  %12 = alloca i1, align 1
  store ptr %0, ptr %5, align 8
  store ptr %1, ptr %6, align 8
  store ptr %2, ptr %7, align 8
  store ptr %3, ptr %8, align 8
  %13 = load ptr, ptr %6, align 8
  %14 = call noalias noundef nonnull ptr @_Znwm(i64 noundef 112) #19
  store i1 true, ptr %12, align 1
  invoke void @_ZNK6casadi20SharedObjectInternal16shared_from_thisINS_2MXEEEKT_v(ptr dead_on_unwind writable sret(%"class.casadi::MX") align 8 %9, ptr noundef nonnull align 8 dereferenceable(24) %13)
          to label %15 unwind label %20

15:                                               ; preds = %4
  %16 = load ptr, ptr %7, align 8
  %17 = load ptr, ptr %8, align 8
  invoke void @_ZN6casadi6SubRefC1ERKNS_2MXERKNS_5SliceES6_(ptr noundef nonnull align 8 dereferenceable(112) %14, ptr noundef nonnull align 8 dereferenceable(8) %9, ptr noundef nonnull align 8 dereferenceable(24) %16, ptr noundef nonnull align 8 dereferenceable(24) %17)
          to label %18 unwind label %24

18:                                               ; preds = %15
  store i1 false, ptr %12, align 1
  invoke void @_ZN6casadi2MX6createEPNS_6MXNodeE(ptr dead_on_unwind writable sret(%"class.casadi::MX") align 8 %0, ptr noundef %14)
          to label %19 unwind label %24

19:                                               ; preds = %18
  call void @_ZN6casadi2MXD1Ev(ptr noundef nonnull align 8 dereferenceable(8) %9) #3
  ret void

20:                                               ; preds = %4
  %21 = landingpad { ptr, i32 }
          cleanup
  %22 = extractvalue { ptr, i32 } %21, 0
  store ptr %22, ptr %10, align 8
  %23 = extractvalue { ptr, i32 } %21, 1
  store i32 %23, ptr %11, align 4
  br label %28

24:                                               ; preds = %18, %15
  %25 = landingpad { ptr, i32 }
          cleanup
  %26 = extractvalue { ptr, i32 } %25, 0
  store ptr %26, ptr %10, align 8
  %27 = extractvalue { ptr, i32 } %25, 1
  store i32 %27, ptr %11, align 4
  call void @_ZN6casadi2MXD1Ev(ptr noundef nonnull align 8 dereferenceable(8) %9) #3
  br label %28

28:                                               ; preds = %24, %20
  %29 = load i1, ptr %12, align 1
  br i1 %29, label %30, label %31

30:                                               ; preds = %28
  call void @_ZdlPv(ptr noundef %14) #20
  br label %31

31:                                               ; preds = %30, %28
  br label %32

32:                                               ; preds = %31
  %33 = load ptr, ptr %10, align 8
  %34 = load i32, ptr %11, align 4
  %35 = insertvalue { ptr, i32 } poison, ptr %33, 0
  %36 = insertvalue { ptr, i32 } %35, i32 %34, 1
  resume { ptr, i32 } %36
}